target datalayout = "e-m:e-p270:32:32-p271:32:32-p272:64:64-i64:64-i128:128-f80:128-n8:16:32:64-S128"
target triple = "x86_64-pc-linux-gnu"

; Function Attrs: nounwind sspstrong uwtable
define internal i64 @rb_mod_lt(i64 noundef %0, i64 noundef %1) #0 {
  %3 = alloca i64, align 8
  %4 = alloca i64, align 8
  %5 = alloca i64, align 8
  store i64 %0, ptr %4, align 8, !tbaa !11
  store i64 %1, ptr %5, align 8, !tbaa !11
  %6 = load i64, ptr %4, align 8, !tbaa !11
  %7 = load i64, ptr %5, align 8, !tbaa !11
  %8 = icmp eq i64 %6, %7
  br i1 %8, label %9, label %10

9:                                                ; preds = %2
  store i64 0, ptr %3, align 8
  br label %14

10:                                               ; preds = %2
  %11 = load i64, ptr %4, align 8, !tbaa !11
  %12 = load i64, ptr %5, align 8, !tbaa !11
  %13 = call i64 @rb_class_inherited_p(i64 noundef %11, i64 noundef %12) #29
  store i64 %13, ptr %3, align 8
  br label %14

14:                                               ; preds = %10, %9
  %15 = load i64, ptr %3, align 8
  ret i64 %15
}