; Function Attrs: mustprogress nofree nounwind sspstrong willreturn memory(read) uwtable
define internal range(i64 0, 21) i64 @rb_mod_lt(i64 noundef %0, i64 noundef %1) #11 {
  %3 = icmp eq i64 %0, %1
  br i1 %3, label %6, label %4

4:                                                ; preds = %2
  %5 = tail call i64 @rb_class_inherited_p(i64 noundef %0, i64 noundef %1) #26
  br label %6

6:                                                ; preds = %2, %4
  %.0 = phi i64 [ %5, %4 ], [ 0, %2 ]
  ret i64 %.0
}